; Function Attrs: nounwind uwtable
define nonnull ptr @l_Std_Queue_isEmpty___rarg___boxed(ptr noundef %0) #1 {
  %2 = getelementptr inbounds nuw i8, ptr %0, i64 16
  %3 = load ptr, ptr %2, align 8, !tbaa !4
  %4 = tail call zeroext i8 @l_List_isEmpty___rarg(ptr noundef %3) #4
  %5 = icmp eq i8 %4, 0
  br i1 %5, label %l_Std_Queue_isEmpty___rarg.exit, label %6

6:                                                ; preds = %1
  %7 = getelementptr inbounds nuw i8, ptr %0, i64 8
  %8 = load ptr, ptr %7, align 8, !tbaa !4
  %9 = tail call zeroext i8 @l_List_isEmpty___rarg(ptr noundef %8) #4
  %10 = zext i8 %9 to i64
  %11 = shl nuw nsw i64 %10, 1
  %12 = or disjoint i64 %11, 1
  br label %l_Std_Queue_isEmpty___rarg.exit

l_Std_Queue_isEmpty___rarg.exit:                  ; preds = %1, %6
  %.0.i = phi i64 [ %12, %6 ], [ 1, %1 ]
  %13 = ptrtoint ptr %0 to i64
  %14 = and i64 %13, 1
  %.not = icmp eq i64 %14, 0
  br i1 %.not, label %15, label %lean_dec.exit

15:                                               ; preds = %l_Std_Queue_isEmpty___rarg.exit
  %16 = load i32, ptr %0, align 4, !tbaa !8
  %17 = icmp sgt i32 %16, 1
  br i1 %17, label %18, label %20, !prof !13

18:                                               ; preds = %15
  %19 = add nsw i32 %16, -1
  store i32 %19, ptr %0, align 4, !tbaa !8
  br label %lean_dec.exit

20:                                               ; preds = %15
  %.not.i = icmp eq i32 %16, 0
  br i1 %.not.i, label %lean_dec.exit, label %21

21:                                               ; preds = %20
  tail call void @lean_dec_ref_cold(ptr noundef nonnull %0) #4
  br label %lean_dec.exit

lean_dec.exit:                                    ; preds = %21, %20, %18, %l_Std_Queue_isEmpty___rarg.exit
  %22 = inttoptr i64 %.0.i to ptr
  ret ptr %22
}